target datalayout = "e-m:e-p270:32:32-p271:32:32-p272:64:64-i64:64-i128:128-f80:128-n8:16:32:64-S128"
target triple = "x86_64-pc-linux-gnu"

%struct.Vec_Ptr_t_ = type { i32, i32, ptr }
%struct.Aig_Obj_t_ = type { %union.anon, ptr, ptr, i64, i32, i32, %union.anon.0 }
%union.anon = type { ptr }
%union.anon.0 = type { ptr }
%struct.Aig_Man_t_ = type { ptr, ptr, ptr, ptr, ptr, ptr, ptr, %struct.Aig_Obj_t_, i32, i32, i32, i32, i32, i32, [7 x i32], i32, ptr, i32, ptr, i32, ptr, i32, i32, i32, ptr, i32, i32, i32, i32, i32, ptr, ptr, i32, ptr, ptr, i32, ptr, ptr, i32, i32, i32, ptr, ptr, ptr, ptr, ptr, ptr, ptr, ptr, ptr, ptr, ptr, ptr, ptr, ptr, i32, ptr, ptr, ptr, ptr, i32, i64, i64, i64, ptr, ptr }

@.str.13 = private unnamed_addr constant [57 x i8] c"Llb_ManFlow() error! The computed min-cut is not a cut!\0A\00", align 1

; Function Attrs: inlinehint nounwind uwtable
define internal i32 @Saig_ManPoNum(ptr noundef %0) #2 {
  %2 = alloca ptr, align 8
  store ptr %0, ptr %2, align 8, !tbaa !3
  %3 = load ptr, ptr %2, align 8, !tbaa !3
  %4 = getelementptr inbounds nuw %struct.Aig_Man_t_, ptr %3, i32 0, i32 10
  %5 = load i32, ptr %4, align 8, !tbaa !58
  ret i32 %5
}

; Function Attrs: inlinehint nounwind uwtable
define internal i32 @Saig_ManRegNum(ptr noundef %0) #2 {
  %2 = alloca ptr, align 8
  store ptr %0, ptr %2, align 8, !tbaa !3
  %3 = load ptr, ptr %2, align 8, !tbaa !3
  %4 = getelementptr inbounds nuw %struct.Aig_Man_t_, ptr %3, i32 0, i32 8
  %5 = load i32, ptr %4, align 8, !tbaa !57
  ret i32 %5
}

; Function Attrs: inlinehint nounwind uwtable
define internal void @Aig_ObjSetTravIdCurrent(ptr noundef %0, ptr noundef %1) #2 {
  %3 = alloca ptr, align 8
  %4 = alloca ptr, align 8
  store ptr %0, ptr %3, align 8, !tbaa !3
  store ptr %1, ptr %4, align 8, !tbaa !19
  %5 = load ptr, ptr %3, align 8, !tbaa !3
  %6 = getelementptr inbounds nuw %struct.Aig_Man_t_, ptr %5, i32 0, i32 38
  %7 = load i32, ptr %6, align 8, !tbaa !66
  %8 = load ptr, ptr %4, align 8, !tbaa !19
  %9 = getelementptr inbounds nuw %struct.Aig_Obj_t_, ptr %8, i32 0, i32 4
  store i32 %7, ptr %9, align 8, !tbaa !65
  ret void
}

; Function Attrs: inlinehint nounwind uwtable
define internal ptr @Aig_Regular(ptr noundef %0) #2 {
  %2 = alloca ptr, align 8
  store ptr %0, ptr %2, align 8, !tbaa !19
  %3 = load ptr, ptr %2, align 8, !tbaa !19
  %4 = ptrtoint ptr %3 to i64
  %5 = and i64 %4, -2
  %6 = inttoptr i64 %5 to ptr
  ret ptr %6
}

; Function Attrs: nounwind uwtable
define i32 @Llb_ManFlowVerifyCut(ptr noundef %0, ptr noundef %1) #0 {
  %3 = alloca i32, align 4
  %4 = alloca ptr, align 8
  %5 = alloca ptr, align 8
  %6 = alloca ptr, align 8
  %7 = alloca i32, align 4
  %8 = alloca i32, align 4
  store ptr %0, ptr %4, align 8, !tbaa !3
  store ptr %1, ptr %5, align 8, !tbaa !8
  call void @llvm.lifetime.start.p0(i64 8, ptr %6) #10
  call void @llvm.lifetime.start.p0(i64 4, ptr %7) #10
  %9 = load ptr, ptr %4, align 8, !tbaa !3
  call void @Aig_ManIncrementTravId(ptr noundef %9)
  store i32 0, ptr %7, align 4, !tbaa !10
  br label %10

10:                                               ; preds = %24, %2
  %11 = load i32, ptr %7, align 4, !tbaa !10
  %12 = load ptr, ptr %5, align 8, !tbaa !8
  %13 = call i32 @Vec_PtrSize(ptr noundef %12)
  %14 = icmp slt i32 %11, %13
  br i1 %14, label %15, label %19

15:                                               ; preds = %10
  %16 = load ptr, ptr %5, align 8, !tbaa !8
  %17 = load i32, ptr %7, align 4, !tbaa !10
  %18 = call ptr @Vec_PtrEntry(ptr noundef %16, i32 noundef %17)
  store ptr %18, ptr %6, align 8, !tbaa !19
  br label %19

19:                                               ; preds = %15, %10
  %20 = phi i1 [ false, %10 ], [ true, %15 ]
  br i1 %20, label %21, label %27

21:                                               ; preds = %19
  %22 = load ptr, ptr %4, align 8, !tbaa !3
  %23 = load ptr, ptr %6, align 8, !tbaa !19
  call void @Aig_ObjSetTravIdCurrent(ptr noundef %22, ptr noundef %23)
  br label %24

24:                                               ; preds = %21
  %25 = load i32, ptr %7, align 4, !tbaa !10
  %26 = add nsw i32 %25, 1
  store i32 %26, ptr %7, align 4, !tbaa !10
  br label %10, !llvm.loop !79

27:                                               ; preds = %19
  store i32 0, ptr %7, align 4, !tbaa !10
  br label %28

28:                                               ; preds = %52, %27
  %29 = load i32, ptr %7, align 4, !tbaa !10
  %30 = load ptr, ptr %4, align 8, !tbaa !3
  %31 = call i32 @Saig_ManRegNum(ptr noundef %30)
  %32 = icmp slt i32 %29, %31
  br i1 %32, label %33, label %42

33:                                               ; preds = %28
  %34 = load ptr, ptr %4, align 8, !tbaa !3
  %35 = getelementptr inbounds nuw %struct.Aig_Man_t_, ptr %34, i32 0, i32 3
  %36 = load ptr, ptr %35, align 8, !tbaa !42
  %37 = load i32, ptr %7, align 4, !tbaa !10
  %38 = load ptr, ptr %4, align 8, !tbaa !3
  %39 = call i32 @Saig_ManPoNum(ptr noundef %38)
  %40 = add nsw i32 %37, %39
  %41 = call ptr @Vec_PtrEntry(ptr noundef %36, i32 noundef %40)
  store ptr %41, ptr %6, align 8, !tbaa !19
  br label %42

42:                                               ; preds = %33, %28
  %43 = phi i1 [ false, %28 ], [ true, %33 ]
  br i1 %43, label %44, label %55

44:                                               ; preds = %42
  %45 = load ptr, ptr %4, align 8, !tbaa !3
  %46 = load ptr, ptr %6, align 8, !tbaa !19
  %47 = call ptr @Aig_ObjFanin0(ptr noundef %46)
  %48 = call i32 @Llb_ManFlowVerifyCut_rec(ptr noundef %45, ptr noundef %47)
  %49 = icmp ne i32 %48, 0
  br i1 %49, label %51, label %50

50:                                               ; preds = %44
  store i32 0, ptr %3, align 4
  store i32 1, ptr %8, align 4
  br label %56

51:                                               ; preds = %44
  br label %52

52:                                               ; preds = %51
  %53 = load i32, ptr %7, align 4, !tbaa !10
  %54 = add nsw i32 %53, 1
  store i32 %54, ptr %7, align 4, !tbaa !10
  br label %28, !llvm.loop !80

55:                                               ; preds = %42
  store i32 1, ptr %3, align 4
  store i32 1, ptr %8, align 4
  br label %56

56:                                               ; preds = %55, %50
  call void @llvm.lifetime.end.p0(i64 4, ptr %7) #10
  call void @llvm.lifetime.end.p0(i64 8, ptr %6) #10
  %57 = load i32, ptr %3, align 4
  ret i32 %57
}

; Function Attrs: inlinehint nounwind uwtable
define internal ptr @Aig_ObjFanin1(ptr noundef %0) #2 {
  %2 = alloca ptr, align 8
  store ptr %0, ptr %2, align 8, !tbaa !19
  %3 = load ptr, ptr %2, align 8, !tbaa !19
  %4 = getelementptr inbounds nuw %struct.Aig_Obj_t_, ptr %3, i32 0, i32 2
  %5 = load ptr, ptr %4, align 8, !tbaa !67
  %6 = call ptr @Aig_Regular(ptr noundef %5)
  ret ptr %6
}

; Function Attrs: inlinehint nounwind uwtable
define internal i32 @Aig_ObjIsNode(ptr noundef %0) #2 {
  %2 = alloca ptr, align 8
  store ptr %0, ptr %2, align 8, !tbaa !19
  %3 = load ptr, ptr %2, align 8, !tbaa !19
  %4 = getelementptr inbounds nuw %struct.Aig_Obj_t_, ptr %3, i32 0, i32 3
  %5 = load i64, ptr %4, align 8
  %6 = and i64 %5, 7
  %7 = trunc i64 %6 to i32
  %8 = icmp eq i32 %7, 5
  br i1 %8, label %16, label %9

9:                                                ; preds = %1
  %10 = load ptr, ptr %2, align 8, !tbaa !19
  %11 = getelementptr inbounds nuw %struct.Aig_Obj_t_, ptr %10, i32 0, i32 3
  %12 = load i64, ptr %11, align 8
  %13 = and i64 %12, 7
  %14 = trunc i64 %13 to i32
  %15 = icmp eq i32 %14, 6
  br label %16

16:                                               ; preds = %9, %1
  %17 = phi i1 [ true, %1 ], [ %15, %9 ]
  %18 = zext i1 %17 to i32
  ret i32 %18
}

; Function Attrs: inlinehint nounwind uwtable
define internal ptr @Aig_ObjFanin0(ptr noundef %0) #2 {
  %2 = alloca ptr, align 8
  store ptr %0, ptr %2, align 8, !tbaa !19
  %3 = load ptr, ptr %2, align 8, !tbaa !19
  %4 = getelementptr inbounds nuw %struct.Aig_Obj_t_, ptr %3, i32 0, i32 1
  %5 = load ptr, ptr %4, align 8, !tbaa !59
  %6 = call ptr @Aig_Regular(ptr noundef %5)
  ret ptr %6
}

; Function Attrs: inlinehint nounwind uwtable
define internal ptr @Vec_PtrEntry(ptr noundef %0, i32 noundef %1) #2 {
  %3 = alloca ptr, align 8
  %4 = alloca i32, align 4
  store ptr %0, ptr %3, align 8, !tbaa !8
  store i32 %1, ptr %4, align 4, !tbaa !10
  %5 = load ptr, ptr %3, align 8, !tbaa !8
  %6 = getelementptr inbounds nuw %struct.Vec_Ptr_t_, ptr %5, i32 0, i32 2
  %7 = load ptr, ptr %6, align 8, !tbaa !17
  %8 = load i32, ptr %4, align 4, !tbaa !10
  %9 = sext i32 %8 to i64
  %10 = getelementptr inbounds ptr, ptr %7, i64 %9
  %11 = load ptr, ptr %10, align 8, !tbaa !18
  ret ptr %11
}

; Function Attrs: inlinehint nounwind uwtable
define internal i32 @Vec_PtrSize(ptr noundef %0) #2 {
  %2 = alloca ptr, align 8
  store ptr %0, ptr %2, align 8, !tbaa !8
  %3 = load ptr, ptr %2, align 8, !tbaa !8
  %4 = getelementptr inbounds nuw %struct.Vec_Ptr_t_, ptr %3, i32 0, i32 1
  %5 = load i32, ptr %4, align 4, !tbaa !14
  ret i32 %5
}

; Function Attrs: nounwind uwtable
define ptr @Llb_ManFlow(ptr noundef %0, ptr noundef %1, ptr noundef %2) #0 {
  %4 = alloca ptr, align 8
  %5 = alloca ptr, align 8
  %6 = alloca ptr, align 8
  %7 = alloca ptr, align 8
  %8 = alloca ptr, align 8
  %9 = alloca i32, align 4
  %10 = alloca i32, align 4
  %11 = alloca i32, align 4
  %12 = alloca i32, align 4
  store ptr %0, ptr %4, align 8, !tbaa !3
  store ptr %1, ptr %5, align 8, !tbaa !8
  store ptr %2, ptr %6, align 8, !tbaa !29
  call void @llvm.lifetime.start.p0(i64 8, ptr %7) #10
  call void @llvm.lifetime.start.p0(i64 8, ptr %8) #10
  call void @llvm.lifetime.start.p0(i64 4, ptr %9) #10
  call void @llvm.lifetime.start.p0(i64 4, ptr %10) #10
  call void @llvm.lifetime.start.p0(i64 4, ptr %11) #10
  call void @llvm.lifetime.start.p0(i64 4, ptr %12) #10
  store i32 0, ptr %9, align 4, !tbaa !10
  %13 = load ptr, ptr %4, align 8, !tbaa !3
  call void @Aig_ManCleanData(ptr noundef %13)
  %14 = load ptr, ptr %4, align 8, !tbaa !3
  call void @Aig_ManIncrementTravId(ptr noundef %14)
  store i32 0, ptr %12, align 4, !tbaa !10
  br label %15

15:                                               ; preds = %75, %3
  %16 = load i32, ptr %12, align 4, !tbaa !10
  %17 = load ptr, ptr %5, align 8, !tbaa !8
  %18 = call i32 @Vec_PtrSize(ptr noundef %17)
  %19 = icmp slt i32 %16, %18
  br i1 %19, label %20, label %24

20:                                               ; preds = %15
  %21 = load ptr, ptr %5, align 8, !tbaa !8
  %22 = load i32, ptr %12, align 4, !tbaa !10
  %23 = call ptr @Vec_PtrEntry(ptr noundef %21, i32 noundef %22)
  store ptr %23, ptr %8, align 8, !tbaa !19
  br label %24

24:                                               ; preds = %20, %15
  %25 = phi i1 [ false, %15 ], [ true, %20 ]
  br i1 %25, label %26, label %78

26:                                               ; preds = %24
  %27 = load ptr, ptr %8, align 8, !tbaa !19
  %28 = call ptr @Aig_ObjFanin0(ptr noundef %27)
  %29 = getelementptr inbounds nuw %struct.Aig_Obj_t_, ptr %28, i32 0, i32 3
  %30 = load i64, ptr %29, align 8
  %31 = lshr i64 %30, 5
  %32 = and i64 %31, 1
  %33 = trunc i64 %32 to i32
  %34 = icmp ne i32 %33, 0
  br i1 %34, label %48, label %35

35:                                               ; preds = %26
  %36 = load ptr, ptr %4, align 8, !tbaa !3
  %37 = load ptr, ptr %8, align 8, !tbaa !19
  %38 = call ptr @Aig_ObjFanin0(ptr noundef %37)
  %39 = call i32 @Llb_ManFlowBwdPath2_rec(ptr noundef %36, ptr noundef %38)
  store i32 %39, ptr %10, align 4, !tbaa !10
  %40 = load i32, ptr %10, align 4, !tbaa !10
  %41 = load i32, ptr %9, align 4, !tbaa !10
  %42 = add nsw i32 %41, %40
  store i32 %42, ptr %9, align 4, !tbaa !10
  %43 = load i32, ptr %10, align 4, !tbaa !10
  %44 = icmp ne i32 %43, 0
  br i1 %44, label %45, label %47

45:                                               ; preds = %35
  %46 = load ptr, ptr %4, align 8, !tbaa !3
  call void @Aig_ManIncrementTravId(ptr noundef %46)
  br label %47

47:                                               ; preds = %45, %35
  br label %48

48:                                               ; preds = %47, %26
  %49 = load ptr, ptr %8, align 8, !tbaa !19
  %50 = call i32 @Aig_ObjIsNode(ptr noundef %49)
  %51 = icmp ne i32 %50, 0
  br i1 %51, label %52, label %74

52:                                               ; preds = %48
  %53 = load ptr, ptr %8, align 8, !tbaa !19
  %54 = call ptr @Aig_ObjFanin1(ptr noundef %53)
  %55 = getelementptr inbounds nuw %struct.Aig_Obj_t_, ptr %54, i32 0, i32 3
  %56 = load i64, ptr %55, align 8
  %57 = lshr i64 %56, 5
  %58 = and i64 %57, 1
  %59 = trunc i64 %58 to i32
  %60 = icmp ne i32 %59, 0
  br i1 %60, label %74, label %61

61:                                               ; preds = %52
  %62 = load ptr, ptr %4, align 8, !tbaa !3
  %63 = load ptr, ptr %8, align 8, !tbaa !19
  %64 = call ptr @Aig_ObjFanin1(ptr noundef %63)
  %65 = call i32 @Llb_ManFlowBwdPath2_rec(ptr noundef %62, ptr noundef %64)
  store i32 %65, ptr %10, align 4, !tbaa !10
  %66 = load i32, ptr %10, align 4, !tbaa !10
  %67 = load i32, ptr %9, align 4, !tbaa !10
  %68 = add nsw i32 %67, %66
  store i32 %68, ptr %9, align 4, !tbaa !10
  %69 = load i32, ptr %10, align 4, !tbaa !10
  %70 = icmp ne i32 %69, 0
  br i1 %70, label %71, label %73

71:                                               ; preds = %61
  %72 = load ptr, ptr %4, align 8, !tbaa !3
  call void @Aig_ManIncrementTravId(ptr noundef %72)
  br label %73

73:                                               ; preds = %71, %61
  br label %74

74:                                               ; preds = %73, %52, %48
  br label %75

75:                                               ; preds = %74
  %76 = load i32, ptr %12, align 4, !tbaa !10
  %77 = add nsw i32 %76, 1
  store i32 %77, ptr %12, align 4, !tbaa !10
  br label %15, !llvm.loop !81

78:                                               ; preds = %24
  %79 = load ptr, ptr %6, align 8, !tbaa !29
  %80 = icmp ne ptr %79, null
  br i1 %80, label %81, label %84

81:                                               ; preds = %78
  %82 = load i32, ptr %9, align 4, !tbaa !10
  %83 = load ptr, ptr %6, align 8, !tbaa !29
  store i32 %82, ptr %83, align 4, !tbaa !10
  br label %84

84:                                               ; preds = %81, %78
  %85 = load ptr, ptr %4, align 8, !tbaa !3
  call void @Aig_ManIncrementTravId(ptr noundef %85)
  store i32 0, ptr %12, align 4, !tbaa !10
  br label %86

86:                                               ; preds = %130, %84
  %87 = load i32, ptr %12, align 4, !tbaa !10
  %88 = load ptr, ptr %5, align 8, !tbaa !8
  %89 = call i32 @Vec_PtrSize(ptr noundef %88)
  %90 = icmp slt i32 %87, %89
  br i1 %90, label %91, label %95

91:                                               ; preds = %86
  %92 = load ptr, ptr %5, align 8, !tbaa !8
  %93 = load i32, ptr %12, align 4, !tbaa !10
  %94 = call ptr @Vec_PtrEntry(ptr noundef %92, i32 noundef %93)
  store ptr %94, ptr %8, align 8, !tbaa !19
  br label %95

95:                                               ; preds = %91, %86
  %96 = phi i1 [ false, %86 ], [ true, %91 ]
  br i1 %96, label %97, label %133

97:                                               ; preds = %95
  %98 = load ptr, ptr %8, align 8, !tbaa !19
  %99 = call ptr @Aig_ObjFanin0(ptr noundef %98)
  %100 = getelementptr inbounds nuw %struct.Aig_Obj_t_, ptr %99, i32 0, i32 3
  %101 = load i64, ptr %100, align 8
  %102 = lshr i64 %101, 5
  %103 = and i64 %102, 1
  %104 = trunc i64 %103 to i32
  %105 = icmp ne i32 %104, 0
  br i1 %105, label %111, label %106

106:                                              ; preds = %97
  %107 = load ptr, ptr %4, align 8, !tbaa !3
  %108 = load ptr, ptr %8, align 8, !tbaa !19
  %109 = call ptr @Aig_ObjFanin0(ptr noundef %108)
  %110 = call i32 @Llb_ManFlowBwdPath2_rec(ptr noundef %107, ptr noundef %109)
  store i32 %110, ptr %11, align 4, !tbaa !10
  br label %111

111:                                              ; preds = %106, %97
  %112 = load ptr, ptr %8, align 8, !tbaa !19
  %113 = call i32 @Aig_ObjIsNode(ptr noundef %112)
  %114 = icmp ne i32 %113, 0
  br i1 %114, label %115, label %129

115:                                              ; preds = %111
  %116 = load ptr, ptr %8, align 8, !tbaa !19
  %117 = call ptr @Aig_ObjFanin1(ptr noundef %116)
  %118 = getelementptr inbounds nuw %struct.Aig_Obj_t_, ptr %117, i32 0, i32 3
  %119 = load i64, ptr %118, align 8
  %120 = lshr i64 %119, 5
  %121 = and i64 %120, 1
  %122 = trunc i64 %121 to i32
  %123 = icmp ne i32 %122, 0
  br i1 %123, label %129, label %124

124:                                              ; preds = %115
  %125 = load ptr, ptr %4, align 8, !tbaa !3
  %126 = load ptr, ptr %8, align 8, !tbaa !19
  %127 = call ptr @Aig_ObjFanin1(ptr noundef %126)
  %128 = call i32 @Llb_ManFlowBwdPath2_rec(ptr noundef %125, ptr noundef %127)
  store i32 %128, ptr %11, align 4, !tbaa !10
  br label %129

129:                                              ; preds = %124, %115, %111
  br label %130

130:                                              ; preds = %129
  %131 = load i32, ptr %12, align 4, !tbaa !10
  %132 = add nsw i32 %131, 1
  store i32 %132, ptr %12, align 4, !tbaa !10
  br label %86, !llvm.loop !82

133:                                              ; preds = %95
  %134 = load ptr, ptr %4, align 8, !tbaa !3
  %135 = call ptr @Llb_ManFlowMinCut(ptr noundef %134)
  store ptr %135, ptr %7, align 8, !tbaa !8
  %136 = load ptr, ptr %4, align 8, !tbaa !3
  %137 = load ptr, ptr %7, align 8, !tbaa !8
  %138 = call i32 @Llb_ManFlowVerifyCut(ptr noundef %136, ptr noundef %137)
  %139 = icmp ne i32 %138, 0
  br i1 %139, label %142, label %140

140:                                              ; preds = %133
  %141 = call i32 (ptr, ...) @printf(ptr noundef @.str.13)
  br label %142

142:                                              ; preds = %140, %133
  %143 = load ptr, ptr %7, align 8, !tbaa !8
  call void @llvm.lifetime.end.p0(i64 4, ptr %12) #10
  call void @llvm.lifetime.end.p0(i64 4, ptr %11) #10
  call void @llvm.lifetime.end.p0(i64 4, ptr %10) #10
  call void @llvm.lifetime.end.p0(i64 4, ptr %9) #10
  call void @llvm.lifetime.end.p0(i64 8, ptr %8) #10
  call void @llvm.lifetime.end.p0(i64 8, ptr %7) #10
  ret ptr %143
}