; Function Attrs: nounwind uwtable
define noalias noundef ptr @Llb_ManFlow(ptr noundef %0, ptr noundef readonly captures(none) %1, ptr noundef writeonly %2) local_unnamed_addr #0 {
  tail call void @Aig_ManCleanData(ptr noundef %0) #22
  tail call void @Aig_ManIncrementTravId(ptr noundef %0) #22
  %4 = getelementptr i8, ptr %1, i64 4
  %.val5771 = load i32, ptr %4, align 4, !tbaa !10
  %5 = icmp sgt i32 %.val5771, 0
  br i1 %5, label %.lr.ph, label %.critedge

.lr.ph:                                           ; preds = %3
  %6 = getelementptr i8, ptr %1, i64 8
  br label %7

7:                                                ; preds = %.lr.ph, %38
  %indvars.iv = phi i64 [ 0, %.lr.ph ], [ %indvars.iv.next, %38 ]
  %.04372 = phi i32 [ 0, %.lr.ph ], [ %.2, %38 ]
  %.val55 = load ptr, ptr %6, align 8, !tbaa !9
  %8 = getelementptr inbounds nuw ptr, ptr %.val55, i64 %indvars.iv
  %9 = load ptr, ptr %8, align 8, !tbaa !11
  %10 = getelementptr i8, ptr %9, i64 8
  %.val61 = load ptr, ptr %10, align 8, !tbaa !31
  %11 = ptrtoint ptr %.val61 to i64
  %12 = and i64 %11, -2
  %13 = inttoptr i64 %12 to ptr
  %14 = getelementptr inbounds nuw i8, ptr %13, i64 24
  %15 = load i64, ptr %14, align 8
  %16 = and i64 %15, 32
  %.not50 = icmp eq i64 %16, 0
  br i1 %.not50, label %17, label %21

17:                                               ; preds = %7
  %18 = tail call i32 @Llb_ManFlowBwdPath2_rec(ptr noundef %0, ptr noundef nonnull %13)
  %19 = add nsw i32 %18, %.04372
  %.not51 = icmp eq i32 %18, 0
  br i1 %.not51, label %21, label %20

20:                                               ; preds = %17
  tail call void @Aig_ManIncrementTravId(ptr noundef %0) #22
  br label %21

21:                                               ; preds = %17, %20, %7
  %.144 = phi i32 [ %.04372, %7 ], [ %19, %20 ], [ %19, %17 ]
  %22 = getelementptr i8, ptr %9, i64 24
  %.val67 = load i64, ptr %22, align 8
  %23 = trunc i64 %.val67 to i32
  %24 = and i32 %23, 7
  %25 = add nsw i32 %24, -7
  %narrow.i = icmp ult i32 %25, -2
  br i1 %narrow.i, label %38, label %26

26:                                               ; preds = %21
  %27 = getelementptr i8, ptr %9, i64 16
  %.val65 = load ptr, ptr %27, align 8, !tbaa !32
  %28 = ptrtoint ptr %.val65 to i64
  %29 = and i64 %28, -2
  %30 = inttoptr i64 %29 to ptr
  %31 = getelementptr inbounds nuw i8, ptr %30, i64 24
  %32 = load i64, ptr %31, align 8
  %33 = and i64 %32, 32
  %.not53 = icmp eq i64 %33, 0
  br i1 %.not53, label %34, label %38

34:                                               ; preds = %26
  %35 = tail call i32 @Llb_ManFlowBwdPath2_rec(ptr noundef %0, ptr noundef nonnull %30)
  %36 = add nsw i32 %35, %.144
  %.not54 = icmp eq i32 %35, 0
  br i1 %.not54, label %38, label %37

37:                                               ; preds = %34
  tail call void @Aig_ManIncrementTravId(ptr noundef %0) #22
  br label %38

38:                                               ; preds = %21, %26, %37, %34
  %.2 = phi i32 [ %.144, %26 ], [ %36, %37 ], [ %36, %34 ], [ %.144, %21 ]
  %indvars.iv.next = add nuw nsw i64 %indvars.iv, 1
  %.val57 = load i32, ptr %4, align 4, !tbaa !10
  %39 = sext i32 %.val57 to i64
  %40 = icmp slt i64 %indvars.iv.next, %39
  br i1 %40, label %7, label %.critedge, !llvm.loop !77

.critedge:                                        ; preds = %38, %3
  %.043.lcssa = phi i32 [ 0, %3 ], [ %.2, %38 ]
  %.not = icmp eq ptr %2, null
  br i1 %.not, label %42, label %41

41:                                               ; preds = %.critedge
  store i32 %.043.lcssa, ptr %2, align 4, !tbaa !43
  br label %42

42:                                               ; preds = %41, %.critedge
  tail call void @Aig_ManIncrementTravId(ptr noundef %0) #22
  %.val5674 = load i32, ptr %4, align 4, !tbaa !10
  %43 = icmp sgt i32 %.val5674, 0
  br i1 %43, label %.lr.ph76, label %.critedge2

.lr.ph76:                                         ; preds = %42
  %44 = getelementptr i8, ptr %1, i64 8
  br label %45

45:                                               ; preds = %.lr.ph76, %72
  %indvars.iv78 = phi i64 [ 0, %.lr.ph76 ], [ %indvars.iv.next79, %72 ]
  %.val = load ptr, ptr %44, align 8, !tbaa !9
  %46 = getelementptr inbounds nuw ptr, ptr %.val, i64 %indvars.iv78
  %47 = load ptr, ptr %46, align 8, !tbaa !11
  %48 = getelementptr i8, ptr %47, i64 8
  %.val59 = load ptr, ptr %48, align 8, !tbaa !31
  %49 = ptrtoint ptr %.val59 to i64
  %50 = and i64 %49, -2
  %51 = inttoptr i64 %50 to ptr
  %52 = getelementptr inbounds nuw i8, ptr %51, i64 24
  %53 = load i64, ptr %52, align 8
  %54 = and i64 %53, 32
  %.not47 = icmp eq i64 %54, 0
  br i1 %.not47, label %55, label %57

55:                                               ; preds = %45
  %56 = tail call i32 @Llb_ManFlowBwdPath2_rec(ptr noundef %0, ptr noundef nonnull %51)
  br label %57

57:                                               ; preds = %55, %45
  %58 = getelementptr i8, ptr %47, i64 24
  %.val66 = load i64, ptr %58, align 8
  %59 = trunc i64 %.val66 to i32
  %60 = and i32 %59, 7
  %61 = add nsw i32 %60, -7
  %narrow.i68 = icmp ult i32 %61, -2
  br i1 %narrow.i68, label %72, label %62

62:                                               ; preds = %57
  %63 = getelementptr i8, ptr %47, i64 16
  %.val63 = load ptr, ptr %63, align 8, !tbaa !32
  %64 = ptrtoint ptr %.val63 to i64
  %65 = and i64 %64, -2
  %66 = inttoptr i64 %65 to ptr
  %67 = getelementptr inbounds nuw i8, ptr %66, i64 24
  %68 = load i64, ptr %67, align 8
  %69 = and i64 %68, 32
  %.not49 = icmp eq i64 %69, 0
  br i1 %.not49, label %70, label %72

70:                                               ; preds = %62
  %71 = tail call i32 @Llb_ManFlowBwdPath2_rec(ptr noundef %0, ptr noundef nonnull %66)
  br label %72

72:                                               ; preds = %57, %62, %70
  %indvars.iv.next79 = add nuw nsw i64 %indvars.iv78, 1
  %.val56 = load i32, ptr %4, align 4, !tbaa !10
  %73 = sext i32 %.val56 to i64
  %74 = icmp slt i64 %indvars.iv.next79, %73
  br i1 %74, label %45, label %.critedge2, !llvm.loop !78

.critedge2:                                       ; preds = %72, %42
  %75 = tail call ptr @Llb_ManFlowMinCut(ptr noundef %0)
  tail call void @Aig_ManIncrementTravId(ptr noundef %0) #22
  %76 = getelementptr i8, ptr %75, i64 4
  %.val20.i = load i32, ptr %76, align 4, !tbaa !10
  %77 = icmp sgt i32 %.val20.i, 0
  br i1 %77, label %.lr.ph.i, label %.critedge.preheader.i

.lr.ph.i:                                         ; preds = %.critedge2
  %78 = getelementptr i8, ptr %75, i64 8
  %.val19.i = load ptr, ptr %78, align 8, !tbaa !9
  %79 = getelementptr i8, ptr %0, i64 312
  %.val21.i = load i32, ptr %79, align 8, !tbaa !14
  %wide.trip.count.i = zext nneg i32 %.val20.i to i64
  br label %84

.critedge.preheader.i:                            ; preds = %84, %.critedge2
  %80 = getelementptr inbounds nuw i8, ptr %0, i64 24
  %81 = getelementptr i8, ptr %0, i64 104
  %.val2326.i = load i32, ptr %81, align 8, !tbaa !46
  %82 = icmp sgt i32 %.val2326.i, 0
  br i1 %82, label %.lr.ph28.i, label %Llb_ManFlowVerifyCut.exit.thread

.lr.ph28.i:                                       ; preds = %.critedge.preheader.i
  %83 = getelementptr i8, ptr %0, i64 112
  br label %90

84:                                               ; preds = %84, %.lr.ph.i
  %indvars.iv.i = phi i64 [ 0, %.lr.ph.i ], [ %indvars.iv.next.i, %84 ]
  %85 = getelementptr inbounds nuw ptr, ptr %.val19.i, i64 %indvars.iv.i
  %86 = load ptr, ptr %85, align 8, !tbaa !11
  %87 = getelementptr inbounds nuw i8, ptr %86, i64 32
  store i32 %.val21.i, ptr %87, align 8, !tbaa !28
  %indvars.iv.next.i = add nuw nsw i64 %indvars.iv.i, 1
  %exitcond.not.i = icmp eq i64 %indvars.iv.next.i, %wide.trip.count.i
  br i1 %exitcond.not.i, label %.critedge.preheader.i, label %84, !llvm.loop !75

.critedge.i:                                      ; preds = %90
  %88 = add nuw nsw i32 %.127.i, 1
  %.val23.i = load i32, ptr %81, align 8, !tbaa !46
  %89 = icmp slt i32 %88, %.val23.i
  br i1 %89, label %90, label %Llb_ManFlowVerifyCut.exit.thread, !llvm.loop !76

90:                                               ; preds = %.critedge.i, %.lr.ph28.i
  %.127.i = phi i32 [ 0, %.lr.ph28.i ], [ %88, %.critedge.i ]
  %91 = load ptr, ptr %80, align 8, !tbaa !47
  %.val24.i = load i32, ptr %83, align 8, !tbaa !48
  %92 = add nsw i32 %.val24.i, %.127.i
  %93 = getelementptr i8, ptr %91, i64 8
  %.val.i = load ptr, ptr %93, align 8, !tbaa !9
  %94 = sext i32 %92 to i64
  %95 = getelementptr inbounds ptr, ptr %.val.i, i64 %94
  %96 = load ptr, ptr %95, align 8, !tbaa !11
  %97 = getelementptr i8, ptr %96, i64 8
  %.val22.i = load ptr, ptr %97, align 8, !tbaa !31
  %98 = ptrtoint ptr %.val22.i to i64
  %99 = and i64 %98, -2
  %100 = inttoptr i64 %99 to ptr
  %101 = tail call i32 @Llb_ManFlowVerifyCut_rec(ptr noundef nonnull %0, ptr noundef %100)
  %.not.i = icmp eq i32 %101, 0
  br i1 %.not.i, label %Llb_ManFlowVerifyCut.exit, label %.critedge.i

Llb_ManFlowVerifyCut.exit:                        ; preds = %90
  %puts = tail call i32 @puts(ptr nonnull dereferenceable(1) @str.1)
  br label %Llb_ManFlowVerifyCut.exit.thread

Llb_ManFlowVerifyCut.exit.thread:                 ; preds = %.critedge.i, %.critedge.preheader.i, %Llb_ManFlowVerifyCut.exit
  ret ptr %75
}